; ModuleID = '31/184.c'
source_filename = "31/184.c"
target datalayout = "e-m:e-p270:32:32-p271:32:32-p272:64:64-i64:64-f80:128-n8:16:32:64-S128"
target triple = "x86_64-pc-linux-gnu"

%struct.student = type { [50 x i8], %struct.student* }

@.str = private unnamed_addr constant [3 x i8] c"%s\00", align 1
@.str.1 = private unnamed_addr constant [4 x i8] c"\0A%s\00", align 1

; Function Attrs: noinline nounwind uwtable
define dso_local i32 @main() #0 {
  %1 = alloca i32, align 4
  %2 = alloca %struct.student*, align 8
  %3 = alloca %struct.student*, align 8
  %4 = alloca %struct.student*, align 8
  %5 = alloca %struct.student*, align 8
  %6 = alloca %struct.student*, align 8
  %7 = alloca %struct.student*, align 8
  %8 = alloca %struct.student*, align 8
  %9 = alloca %struct.student*, align 8
  %10 = alloca i32, align 4
  %11 = alloca i32, align 4
  %12 = alloca i32, align 4
  %13 = alloca [16 x i8], align 16
  %14 = alloca i32, align 4
  store i32 0, i32* %1, align 4
  %15 = getelementptr inbounds [16 x i8], [16 x i8]* %13, i64 0, i64 0
  store i8 101, i8* %15, align 16
  %16 = getelementptr inbounds [16 x i8], [16 x i8]* %13, i64 0, i64 1
  store i8 110, i8* %16, align 1
  %17 = getelementptr inbounds [16 x i8], [16 x i8]* %13, i64 0, i64 2
  store i8 100, i8* %17, align 2
  %18 = getelementptr inbounds [16 x i8], [16 x i8]* %13, i64 0, i64 3
  store i8 0, i8* %18, align 1
  store i32 0, i32* %14, align 4
  %19 = call noalias i8* @malloc(i64 64) #4
  %20 = bitcast i8* %19 to %struct.student*
  store %struct.student* %20, %struct.student** %4, align 8
  store %struct.student* %20, %struct.student** %3, align 8
  store %struct.student* %20, %struct.student** %5, align 8
  store %struct.student* %20, %struct.student** %8, align 8
  store %struct.student* %20, %struct.student** %7, align 8
  store %struct.student* %20, %struct.student** %9, align 8
  %21 = load %struct.student*, %struct.student** %3, align 8
  %22 = getelementptr inbounds %struct.student, %struct.student* %21, i32 0, i32 0
  %23 = getelementptr inbounds [50 x i8], [50 x i8]* %22, i64 0, i64 0
  %24 = call i32 (i8*, ...) bitcast (i32 (...)* @gets to i32 (i8*, ...)*)(i8* %23)
  %25 = load %struct.student*, %struct.student** %3, align 8
  store %struct.student* %25, %struct.student** %7, align 8
  br label %26

26:                                               ; preds = %33, %0
  %27 = load %struct.student*, %struct.student** %3, align 8
  %28 = getelementptr inbounds %struct.student, %struct.student* %27, i32 0, i32 0
  %29 = getelementptr inbounds [50 x i8], [50 x i8]* %28, i64 0, i64 0
  %30 = getelementptr inbounds [16 x i8], [16 x i8]* %13, i64 0, i64 0
  %31 = call i32 @strcmp(i8* %29, i8* %30) #5
  %32 = icmp ne i32 %31, 0
  br i1 %32, label %33, label %44

33:                                               ; preds = %26
  %34 = load %struct.student*, %struct.student** %3, align 8
  store %struct.student* %34, %struct.student** %4, align 8
  %35 = call noalias i8* @malloc(i64 64) #4
  %36 = bitcast i8* %35 to %struct.student*
  store %struct.student* %36, %struct.student** %3, align 8
  %37 = load %struct.student*, %struct.student** %4, align 8
  %38 = load %struct.student*, %struct.student** %3, align 8
  %39 = getelementptr inbounds %struct.student, %struct.student* %38, i32 0, i32 1
  store %struct.student* %37, %struct.student** %39, align 8
  %40 = load %struct.student*, %struct.student** %3, align 8
  %41 = getelementptr inbounds %struct.student, %struct.student* %40, i32 0, i32 0
  %42 = getelementptr inbounds [50 x i8], [50 x i8]* %41, i64 0, i64 0
  %43 = call i32 (i8*, ...) bitcast (i32 (...)* @gets to i32 (i8*, ...)*)(i8* %42)
  br label %26

44:                                               ; preds = %26
  %45 = load %struct.student*, %struct.student** %7, align 8
  %46 = getelementptr inbounds %struct.student, %struct.student* %45, i32 0, i32 1
  store %struct.student* null, %struct.student** %46, align 8
  %47 = load %struct.student*, %struct.student** %3, align 8
  %48 = getelementptr inbounds %struct.student, %struct.student* %47, i32 0, i32 1
  %49 = load %struct.student*, %struct.student** %48, align 8
  store %struct.student* %49, %struct.student** %2, align 8
  store %struct.student* %49, %struct.student** %5, align 8
  store i32 0, i32* %14, align 4
  br label %50

50:                                               ; preds = %68, %44
  %51 = load %struct.student*, %struct.student** %5, align 8
  %52 = icmp ne %struct.student* %51, null
  br i1 %52, label %53, label %72

53:                                               ; preds = %50
  %54 = load i32, i32* %14, align 4
  %55 = add nsw i32 %54, 1
  store i32 %55, i32* %14, align 4
  %56 = load i32, i32* %14, align 4
  %57 = icmp eq i32 %56, 1
  br i1 %57, label %58, label %63

58:                                               ; preds = %53
  %59 = load %struct.student*, %struct.student** %5, align 8
  %60 = getelementptr inbounds %struct.student, %struct.student* %59, i32 0, i32 0
  %61 = getelementptr inbounds [50 x i8], [50 x i8]* %60, i64 0, i64 0
  %62 = call i32 (i8*, ...) @printf(i8* getelementptr inbounds ([3 x i8], [3 x i8]* @.str, i64 0, i64 0), i8* %61)
  br label %68

63:                                               ; preds = %53
  %64 = load %struct.student*, %struct.student** %5, align 8
  %65 = getelementptr inbounds %struct.student, %struct.student* %64, i32 0, i32 0
  %66 = getelementptr inbounds [50 x i8], [50 x i8]* %65, i64 0, i64 0
  %67 = call i32 (i8*, ...) @printf(i8* getelementptr inbounds ([4 x i8], [4 x i8]* @.str.1, i64 0, i64 0), i8* %66)
  br label %68

68:                                               ; preds = %63, %58
  %69 = load %struct.student*, %struct.student** %5, align 8
  %70 = getelementptr inbounds %struct.student, %struct.student* %69, i32 0, i32 1
  %71 = load %struct.student*, %struct.student** %70, align 8
  store %struct.student* %71, %struct.student** %5, align 8
  br label %50

72:                                               ; preds = %50
  ret i32 0
}

; Function Attrs: nounwind
declare dso_local noalias i8* @malloc(i64) #1

declare dso_local i32 @gets(...) #2

; Function Attrs: nounwind readonly
declare dso_local i32 @strcmp(i8*, i8*) #3

declare dso_local i32 @printf(i8*, ...) #2


!llvm.module.flags = !{!0}
!llvm.ident = !{!1}

!0 = !{i32 1, !"wchar_size", i32 4}
!1 = !{!"clang version 10.0.0-4ubuntu1 "}
